target datalayout = "e-m:e-p270:32:32-p271:32:32-p272:64:64-i64:64-i128:128-f80:128-n8:16:32:64-S128"
target triple = "x86_64-pc-linux-gnu"

%struct.lua_Debug = type { i32, ptr, ptr, ptr, ptr, i32, i32, i32, i32, [60 x i8], i32 }

@hookf.hooknames = internal constant [5 x ptr] [ptr @.str.19, ptr @.str.20, ptr @.str.21, ptr @.str.22, ptr @.str.23], align 16
@KEY_HOOK = internal constant i8 104, align 1

; Function Attrs: nounwind uwtable
define internal void @hookf(ptr noundef %0, ptr noundef %1) #0 {
  %3 = alloca ptr, align 8
  %4 = alloca ptr, align 8
  store ptr %0, ptr %3, align 8, !tbaa !4
  store ptr %1, ptr %4, align 8, !tbaa !31
  %5 = load ptr, ptr %3, align 8, !tbaa !4
  call void @lua_pushlightuserdata(ptr noundef %5, ptr noundef @KEY_HOOK)
  %6 = load ptr, ptr %3, align 8, !tbaa !4
  call void @lua_rawget(ptr noundef %6, i32 noundef -10000)
  %7 = load ptr, ptr %3, align 8, !tbaa !4
  %8 = load ptr, ptr %3, align 8, !tbaa !4
  call void @lua_pushlightuserdata(ptr noundef %7, ptr noundef %8)
  %9 = load ptr, ptr %3, align 8, !tbaa !4
  call void @lua_rawget(ptr noundef %9, i32 noundef -2)
  %10 = load ptr, ptr %3, align 8, !tbaa !4
  %11 = call i32 @lua_type(ptr noundef %10, i32 noundef -1)
  %12 = icmp eq i32 %11, 6
  br i1 %12, label %13, label %35

13:                                               ; preds = %2
  %14 = load ptr, ptr %3, align 8, !tbaa !4
  %15 = load ptr, ptr %4, align 8, !tbaa !31
  %16 = getelementptr inbounds nuw %struct.lua_Debug, ptr %15, i32 0, i32 0
  %17 = load i32, ptr %16, align 8, !tbaa !33
  %18 = sext i32 %17 to i64
  %19 = getelementptr inbounds [5 x ptr], ptr @hookf.hooknames, i64 0, i64 %18
  %20 = load ptr, ptr %19, align 8, !tbaa !14
  call void @lua_pushstring(ptr noundef %14, ptr noundef %20)
  %21 = load ptr, ptr %4, align 8, !tbaa !31
  %22 = getelementptr inbounds nuw %struct.lua_Debug, ptr %21, i32 0, i32 5
  %23 = load i32, ptr %22, align 8, !tbaa !21
  %24 = icmp sge i32 %23, 0
  br i1 %24, label %25, label %31

25:                                               ; preds = %13
  %26 = load ptr, ptr %3, align 8, !tbaa !4
  %27 = load ptr, ptr %4, align 8, !tbaa !31
  %28 = getelementptr inbounds nuw %struct.lua_Debug, ptr %27, i32 0, i32 5
  %29 = load i32, ptr %28, align 8, !tbaa !21
  %30 = sext i32 %29 to i64
  call void @lua_pushinteger(ptr noundef %26, i64 noundef %30)
  br label %33

31:                                               ; preds = %13
  %32 = load ptr, ptr %3, align 8, !tbaa !4
  call void @lua_pushnil(ptr noundef %32)
  br label %33

33:                                               ; preds = %31, %25
  %34 = load ptr, ptr %3, align 8, !tbaa !4
  call void @lua_call(ptr noundef %34, i32 noundef 2, i32 noundef 0)
  br label %35

35:                                               ; preds = %33, %2
  ret void
}