; Function Attrs: nounwind uwtable
define internal void @hookf(ptr noundef %0, ptr noundef readonly captures(none) %1) #0 {
  tail call void @lua_pushlightuserdata(ptr noundef %0, ptr noundef nonnull @KEY_HOOK) #8
  tail call void @lua_rawget(ptr noundef %0, i32 noundef -10000) #8
  tail call void @lua_pushlightuserdata(ptr noundef %0, ptr noundef %0) #8
  tail call void @lua_rawget(ptr noundef %0, i32 noundef -2) #8
  %3 = tail call i32 @lua_type(ptr noundef %0, i32 noundef -1) #8
  %4 = icmp eq i32 %3, 6
  br i1 %4, label %5, label %17

5:                                                ; preds = %2
  %6 = load i32, ptr %1, align 8, !tbaa !24
  %7 = sext i32 %6 to i64
  %8 = getelementptr inbounds [5 x ptr], ptr @hookf.hooknames, i64 0, i64 %7
  %9 = load ptr, ptr %8, align 8, !tbaa !25
  tail call void @lua_pushstring(ptr noundef %0, ptr noundef %9) #8
  %10 = getelementptr inbounds nuw i8, ptr %1, i64 40
  %11 = load i32, ptr %10, align 8, !tbaa !17
  %12 = icmp sgt i32 %11, -1
  br i1 %12, label %13, label %15

13:                                               ; preds = %5
  %14 = zext nneg i32 %11 to i64
  tail call void @lua_pushinteger(ptr noundef %0, i64 noundef %14) #8
  br label %16

15:                                               ; preds = %5
  tail call void @lua_pushnil(ptr noundef %0) #8
  br label %16

16:                                               ; preds = %15, %13
  tail call void @lua_call(ptr noundef %0, i32 noundef 2, i32 noundef 0) #8
  br label %17

17:                                               ; preds = %16, %2
  ret void
}